; Function Attrs: null_pointer_is_valid sspstrong uwtable
define internal i32 @dissect_mms_T_data_visible_string(i1 noundef zeroext %0, ptr noundef %1, i32 noundef %2, ptr noundef %3, ptr noundef %4, i32 noundef %5) #0 {
  %7 = getelementptr inbounds nuw i8, ptr %3, i64 48
  %8 = load ptr, ptr %7, align 8
  %.not = icmp eq ptr %8, null
  br i1 %.not, label %20, label %9

9:                                                ; preds = %6
  %10 = getelementptr inbounds nuw i8, ptr %8, i64 8
  %11 = load i32, ptr %10, align 8
  %12 = icmp eq i32 %11, 1
  br i1 %12, label %13, label %20

13:                                               ; preds = %9
  %14 = getelementptr inbounds nuw i8, ptr %8, i64 12
  %15 = load i32, ptr %14, align 4
  switch i32 %15, label %20 [
    i32 1, label %16
    i32 5, label %18
  ]

16:                                               ; preds = %13
  %17 = load i32, ptr @hf_mms_iec61850_rptid, align 4
  br label %20

18:                                               ; preds = %13
  %19 = load i32, ptr @hf_mms_iec61850_datset, align 4
  br label %20

20:                                               ; preds = %13, %9, %18, %16, %6
  %.0 = phi i32 [ %17, %16 ], [ %19, %18 ], [ %5, %9 ], [ %5, %6 ], [ %5, %13 ]
  %21 = tail call i32 @dissect_ber_restricted_string(i1 noundef zeroext %0, i32 noundef 26, ptr noundef %3, ptr noundef %4, ptr noundef %1, i32 noundef %2, i32 noundef %.0, ptr noundef null)
  ret i32 %21
}